target datalayout = "e-m:e-p270:32:32-p271:32:32-p272:64:64-i64:64-i128:128-f80:128-n8:16:32:64-S128"
target triple = "x86_64-pc-linux-gnu"

%"class.net::PacketNumberQueue" = type { %"class.net::IntervalSet" }
%"class.net::IntervalSet" = type { %"class.std::set" }
%"class.std::set" = type { %"class.std::_Rb_tree" }
%"class.std::_Rb_tree" = type { %"struct.std::_Rb_tree<net::Interval<unsigned long>, net::Interval<unsigned long>, std::_Identity<net::Interval<unsigned long>>, net::IntervalSet<unsigned long>::IntervalComparator>::_Rb_tree_impl" }
%"struct.std::_Rb_tree<net::Interval<unsigned long>, net::Interval<unsigned long>, std::_Identity<net::Interval<unsigned long>>, net::IntervalSet<unsigned long>::IntervalComparator>::_Rb_tree_impl" = type { [8 x i8], %"struct.std::_Rb_tree_header" }
%"struct.std::_Rb_tree_header" = type { %"struct.std::_Rb_tree_node_base", i64 }
%"struct.std::_Rb_tree_node_base" = type { i32, ptr, ptr, ptr }
%"class.net::Interval" = type { i64, i64 }

; Function Attrs: mustprogress nounwind uwtable
define linkonce_odr void @_ZN3net8IntervalImEC2ERKmS3_(ptr noundef nonnull align 8 dereferenceable(16) %0, ptr noundef nonnull align 8 dereferenceable(8) %1, ptr noundef nonnull align 8 dereferenceable(8) %2) unnamed_addr #1 comdat align 2 {
  %4 = alloca ptr, align 8
  %5 = alloca ptr, align 8
  %6 = alloca ptr, align 8
  store ptr %0, ptr %4, align 8, !tbaa !217
  store ptr %1, ptr %5, align 8, !tbaa !211
  store ptr %2, ptr %6, align 8, !tbaa !211
  %7 = load ptr, ptr %4, align 8
  %8 = getelementptr inbounds nuw %"class.net::Interval", ptr %7, i32 0, i32 0
  %9 = load ptr, ptr %5, align 8, !tbaa !211
  %10 = load i64, ptr %9, align 8, !tbaa !71
  store i64 %10, ptr %8, align 8, !tbaa !223
  %11 = getelementptr inbounds nuw %"class.net::Interval", ptr %7, i32 0, i32 1
  %12 = load ptr, ptr %6, align 8, !tbaa !211
  %13 = load i64, ptr %12, align 8, !tbaa !71
  store i64 %13, ptr %11, align 8, !tbaa !225
  ret void
}

; Function Attrs: mustprogress uwtable
define linkonce_odr void @_ZN3net11IntervalSetImE10DifferenceERKmS3_(ptr noundef nonnull align 8 dereferenceable(48) %0, ptr noundef nonnull align 8 dereferenceable(8) %1, ptr noundef nonnull align 8 dereferenceable(8) %2) #0 comdat align 2 {
  %4 = alloca ptr, align 8
  %5 = alloca ptr, align 8
  %6 = alloca ptr, align 8
  %7 = alloca %"class.net::Interval", align 8
  store ptr %0, ptr %4, align 8, !tbaa !209
  store ptr %1, ptr %5, align 8, !tbaa !211
  store ptr %2, ptr %6, align 8, !tbaa !211
  %8 = load ptr, ptr %4, align 8
  call void @llvm.lifetime.start.p0(i64 16, ptr %7) #18
  %9 = load ptr, ptr %5, align 8, !tbaa !211
  %10 = load ptr, ptr %6, align 8, !tbaa !211
  call void @_ZN3net8IntervalImEC2ERKmS3_(ptr noundef nonnull align 8 dereferenceable(16) %7, ptr noundef nonnull align 8 dereferenceable(8) %9, ptr noundef nonnull align 8 dereferenceable(8) %10)
  call void @_ZN3net11IntervalSetImE10DifferenceERKNS_8IntervalImEE(ptr noundef nonnull align 8 dereferenceable(48) %8, ptr noundef nonnull align 8 dereferenceable(16) %7)
  call void @llvm.lifetime.end.p0(i64 16, ptr %7) #18
  ret void
}

; Function Attrs: mustprogress uwtable
define void @_ZN3net17PacketNumberQueue6RemoveEm(ptr noundef nonnull align 8 dereferenceable(48) %0, i64 noundef %1) #0 align 2 {
  %3 = alloca ptr, align 8
  %4 = alloca i64, align 8
  %5 = alloca i64, align 8
  store ptr %0, ptr %3, align 8, !tbaa !165
  store i64 %1, ptr %4, align 8, !tbaa !71
  %6 = load ptr, ptr %3, align 8
  %7 = getelementptr inbounds nuw %"class.net::PacketNumberQueue", ptr %6, i32 0, i32 0
  call void @llvm.lifetime.start.p0(i64 8, ptr %5) #18
  %8 = load i64, ptr %4, align 8, !tbaa !71
  %9 = add i64 %8, 1
  store i64 %9, ptr %5, align 8, !tbaa !71
  call void @_ZN3net11IntervalSetImE10DifferenceERKmS3_(ptr noundef nonnull align 8 dereferenceable(48) %7, ptr noundef nonnull align 8 dereferenceable(8) %4, ptr noundef nonnull align 8 dereferenceable(8) %5)
  call void @llvm.lifetime.end.p0(i64 8, ptr %5) #18
  ret void
}