; Function Attrs: mustprogress uwtable
define void @_ZN3net17PacketNumberQueue6RemoveEm(ptr noundef nonnull align 8 dereferenceable(48) %0, i64 noundef %1) local_unnamed_addr #3 align 2 {
  %3 = alloca %"class.net::Interval", align 8
  %4 = add i64 %1, 1
  call void @llvm.lifetime.start.p0(i64 16, ptr nonnull %3) #30
  store i64 %1, ptr %3, align 8, !tbaa !161
  %5 = getelementptr inbounds nuw i8, ptr %3, i64 8
  store i64 %4, ptr %5, align 8, !tbaa !163
  call void @_ZN3net11IntervalSetImE10DifferenceERKNS_8IntervalImEE(ptr noundef nonnull align 8 dereferenceable(48) %0, ptr noundef nonnull align 8 dereferenceable(16) %3)
  call void @llvm.lifetime.end.p0(i64 16, ptr nonnull %3) #30
  ret void
}